


ARM Macro Assembler    Page 1 


    1 00000000         ;* -----------------------------------------------------
                       -------------
    2 00000000         ;* --  _____       ______  _____                        
                                   -
    3 00000000         ;* -- |_   _|     |  ____|/ ____|                       
                                   -
    4 00000000         ;* --   | |  _ __ | |__  | (___    Institute of Embedded
                        Systems    -
    5 00000000         ;* --   | | | '_ \|  __|  \___ \   Zurich University of 
                                   -
    6 00000000         ;* --  _| |_| | | | |____ ____) |  Applied Sciences     
                                   -
    7 00000000         ;* -- |_____|_| |_|______|_____/   8401 Winterthur, Swit
                       zerland     -
    8 00000000         ;* -----------------------------------------------------
                       -------------
    9 00000000         ;* --
   10 00000000         ;* -- Project     : CT1 - Lab 9
   11 00000000         ;* -- Description : Multiplication 16 bit unsigned
   12 00000000         ;* -- 
   13 00000000         ;* -- $Id: $
   14 00000000         ;* -----------------------------------------------------
                       -------------
   15 00000000         
   16 00000000         
   17 00000000 00000008 
                       NR_OF_TESTS
                               EQU              8
   18 00000000 00000001 
                       BITMASK_1
                               EQU              0x01
   19 00000000         
   20 00000000         ; ------------------------------------------------------
                       -------------
   21 00000000         ; -- Code
   22 00000000         ; ------------------------------------------------------
                       -------------
   23 00000000                 AREA             myCode, CODE, READONLY
   24 00000000                 THUMB
   25 00000000         
   26 00000000         mul_u16 PROC
   27 00000000                 EXPORT           mul_u16
   28 00000000                 IMPORT           display_title
   29 00000000                 IMPORT           tests_16x16
   30 00000000         
   31 00000000 B50E            PUSH             {R1-R3,LR}
   32 00000002         
   33 00000002 480F            LDR              R0,=title
   34 00000004 F7FF FFFE       BL               display_title
   35 00000008         
   36 00000008 4B0E            LDR              R3,=result_table
   37 0000000A 4A0F            LDR              R2,=values
   38 0000000C 490F            LDR              R1,=NR_OF_TESTS
   39 0000000E 4810            LDR              R0,=operation
   40 00000010 F7FF FFFE       BL               tests_16x16
   41 00000014         
   42 00000014 BD0E            POP              {R1-R3,PC}
   43 00000016                 ENDP
   44 00000016         



ARM Macro Assembler    Page 2 


   45 00000016         ; ------------------------------------------------------
                       -------------
   46 00000016         ; 16 bit multiplication
   47 00000016         ; - multiplier in R0
   48 00000016         ; - multiplicand in R1
   49 00000016         ; - 32 bit result in R0
   50 00000016         ; ------------------------------------------------------
                       -------------
   51 00000016         operation
                               PROC
   52 00000016         
   53 00000016 B5F0            PUSH             {R4-R7,LR}
   54 00000018         ; Instruction: do not use high registers in your code, 
   55 00000018         ; or make sure they contain thier original values
   56 00000018         ; when the function returns
   57 00000018         
   58 00000018         ; STUDENTS: To be programmed  
   59 00000018         
   60 00000018 4A0E            LDR              R2, =0      ; loopcounter R2 to
                                                             zero
   61 0000001A 4C0E            LDR              R4, =0      ; temp. result
   62 0000001C 4E0E            LDR              R6, =BITMASK_1
   63 0000001E         
   64 0000001E 0003            MOVS             R3, R0
   65 00000020         
   66 00000020         while
   67 00000020 2B00            CMP              R3, #0      ; Compare R3 with z
                                                            ero
   68 00000022 D00A            BEQ              endWhile
   69 00000024         
   70 00000024         ; Mask
   71 00000024 001D            MOVS             R5, R3
   72 00000026 4035            ANDS             R5, R5, R6  ; filtering last bi
                                                            t
   73 00000028         
   74 00000028 2D00            CMP              R5, #0      ; checks last bit
   75 0000002A D002            BEQ              end_if      ; if last bit = 0 t
                                                            han end_if
   76 0000002C         
   77 0000002C 000F            MOVS             R7, R1
   78 0000002E 4097            LSLS             R7, R7, R2  ; shift operand 2 e
                                                            ver loop
   79 00000030 19E4            ADDS             R4, R4, R7  ; adds operand 2 ev
                                                            ery loop
   80 00000032         end_if
   81 00000032 4F09            LDR              R7, =1
   82 00000034 19D2            ADDS             R2, R2, R7  ; R2 counts +1 ever
                                                            y loop
   83 00000036 085B            LSRS             R3, R3, #1
   84 00000038 E7F2            B                while
   85 0000003A         
   86 0000003A         endWhile
   87 0000003A 0020            MOVS             R0, R4      ; result to R0
   88 0000003C         
   89 0000003C         ; END: To be programmed
   90 0000003C         
   91 0000003C BDF0            POP              {R4-R7,PC}  ; return R0
   92 0000003E                 ENDP
   93 0000003E         



ARM Macro Assembler    Page 3 


   94 0000003E 00 00           ALIGN
   95 00000040         
   96 00000040         ; ------------------------------------------------------
                       -------------
   97 00000040         ; -- Constants
   98 00000040         ; ------------------------------------------------------
                       -------------
   99 00000040 00000000 
              00000000 
              00000000 
              00000008 
              00000000 
              00000000 
              00000001         AREA             myConstants, DATA, READONLY
  100 00000000         
  101 00000000 01 00   values  DCW              0x0001
  102 00000002 FF FF           DCW              0xffff
  103 00000004 0000FFFF        DCD              0x0000ffff
  104 00000008         
  105 00000008 17 00           DCW              0x0017
  106 0000000A 4A 00           DCW              0x004a
  107 0000000C 000006A6        DCD              0x000006a6
  108 00000010         
  109 00000010 FF FF           DCW              0xffff
  110 00000012 FF FF           DCW              0xffff
  111 00000014 FFFE0001        DCD              0xfffe0001
  112 00000018         
  113 00000018 A4 73           DCW              0x73a4
  114 0000001A 28 4C           DCW              0x4c28
  115 0000001C 2266C1A0        DCD              0x2266c1a0
  116 00000020         
  117 00000020 CC 43           DCW              0x43cc
  118 00000022 BF C3           DCW              0xc3bf
  119 00000024 33D6F934        DCD              0x33d6f934
  120 00000028         
  121 00000028 72 E3           DCW              0xe372
  122 0000002A 34 02           DCW              0x0234
  123 0000002C 01F51728        DCD              0x01f51728
  124 00000030         
  125 00000030 22 DD           DCW              0xdd22
  126 00000032 DE BC           DCW              0xbcde
  127 00000034 A324BB7C        DCD              0xa324bb7c
  128 00000038         
  129 00000038 FF 7F           DCW              0x7fff
  130 0000003A FF 7F           DCW              0x7fff
  131 0000003C 3FFF0001        DCD              0x3fff0001
  132 00000040         
  133 00000040 6D 75 6C 
              5F 75 31 
              36 00    title   DCB              "mul_u16", 0
  134 00000048         
  135 00000048                 ALIGN
  136 00000048         
  137 00000048         ; ------------------------------------------------------
                       -------------
  138 00000048         ; -- Variables
  139 00000048         ; ------------------------------------------------------
                       -------------
  140 00000048                 AREA             myVars, DATA, READWRITE



ARM Macro Assembler    Page 4 


  141 00000000         
  142 00000000 00 00 00 
              00 00 00 
              00 00 00 
              00 00 00 
              00 00 00 
              00 00 00 
              00 00 00 
              00 00 00 
              00 00 00 
              00 00 00 
              00 00    result_table
                               SPACE            NR_OF_TESTS*4
  143 00000020         
  144 00000020                 ALIGN
  145 00000020         
  146 00000020         ; ------------------------------------------------------
                       -------------
  147 00000020         ; -- End of file
  148 00000020         ; ------------------------------------------------------
                       -------------                      
  149 00000020                 END
Command Line: --debug --xref --diag_suppress=9931 --cpu=Cortex-M0 --depend=.\bu
ild\mul_u16.d -o.\build\mul_u16.o -I.\RTE\_Target_1 -IC:\Users\claud\AppData\Lo
cal\Arm\Packs\InES\CTBoard14_DFP\4.0.2\Device\Include -IC:\Users\claud\AppData\
Local\Arm\Packs\InES\CTBoard14_DFP\4.0.2\Device\Include\m0 -IC:\Users\claud\App
Data\Local\Arm\Packs\InES\CTBoard14_DFP\4.0.2\HAL\Include --predefine="__EVAL S
ETA 1" --predefine="__UVISION_VERSION SETA 537" --predefine="_RTE_ SETA 1" --pr
edefine="_RTE_ SETA 1" --list=.\build\mul_u16.lst app\mul_u16.s



ARM Macro Assembler    Page 1 Alphabetic symbol ordering
Relocatable symbols

endWhile 0000003A

Symbol: endWhile
   Definitions
      At line 86 in file app\mul_u16.s
   Uses
      At line 68 in file app\mul_u16.s
Comment: endWhile used once
end_if 00000032

Symbol: end_if
   Definitions
      At line 80 in file app\mul_u16.s
   Uses
      At line 75 in file app\mul_u16.s
Comment: end_if used once
mul_u16 00000000

Symbol: mul_u16
   Definitions
      At line 26 in file app\mul_u16.s
   Uses
      At line 27 in file app\mul_u16.s
Comment: mul_u16 used once
myCode 00000000

Symbol: myCode
   Definitions
      At line 23 in file app\mul_u16.s
   Uses
      None
Comment: myCode unused
operation 00000016

Symbol: operation
   Definitions
      At line 51 in file app\mul_u16.s
   Uses
      At line 39 in file app\mul_u16.s
Comment: operation used once
while 00000020

Symbol: while
   Definitions
      At line 66 in file app\mul_u16.s
   Uses
      At line 84 in file app\mul_u16.s
Comment: while used once
6 symbols



ARM Macro Assembler    Page 1 Alphabetic symbol ordering
Relocatable symbols

myConstants 00000000

Symbol: myConstants
   Definitions
      At line 99 in file app\mul_u16.s
   Uses
      None
Comment: myConstants unused
title 00000040

Symbol: title
   Definitions
      At line 133 in file app\mul_u16.s
   Uses
      At line 33 in file app\mul_u16.s
Comment: title used once
values 00000000

Symbol: values
   Definitions
      At line 101 in file app\mul_u16.s
   Uses
      At line 37 in file app\mul_u16.s
Comment: values used once
3 symbols



ARM Macro Assembler    Page 1 Alphabetic symbol ordering
Relocatable symbols

myVars 00000000

Symbol: myVars
   Definitions
      At line 140 in file app\mul_u16.s
   Uses
      None
Comment: myVars unused
result_table 00000000

Symbol: result_table
   Definitions
      At line 142 in file app\mul_u16.s
   Uses
      At line 36 in file app\mul_u16.s
Comment: result_table used once
2 symbols



ARM Macro Assembler    Page 1 Alphabetic symbol ordering
Absolute symbols

BITMASK_1 00000001

Symbol: BITMASK_1
   Definitions
      At line 18 in file app\mul_u16.s
   Uses
      At line 62 in file app\mul_u16.s
Comment: BITMASK_1 used once
NR_OF_TESTS 00000008

Symbol: NR_OF_TESTS
   Definitions
      At line 17 in file app\mul_u16.s
   Uses
      At line 38 in file app\mul_u16.s
      At line 142 in file app\mul_u16.s

2 symbols



ARM Macro Assembler    Page 1 Alphabetic symbol ordering
External symbols

display_title 00000000

Symbol: display_title
   Definitions
      At line 28 in file app\mul_u16.s
   Uses
      At line 34 in file app\mul_u16.s
Comment: display_title used once
tests_16x16 00000000

Symbol: tests_16x16
   Definitions
      At line 29 in file app\mul_u16.s
   Uses
      At line 40 in file app\mul_u16.s
Comment: tests_16x16 used once
2 symbols
350 symbols in table
